(dp0
S'_AgentService:AgentInfo'
p1
(dp2
S'com.plexapp.agents.fanarttv'
p3
(lp4
(dp5
S'media_types'
p6
(lp7
S'Movie'
p8
asS'primary_provider'
p9
I00
sS'fallback_agent'
p10
NsS'contributes_to'
p11
(lp12
S'com.plexapp.agents.imdb'
p13
aS'com.plexapp.agents.themoviedb'
p14
asS'has_attribution'
p15
I01
sS'languages'
p16
(lp17
S'xn'
p18
asS'persist_stored_files'
p19
I01
sS'version'
p20
I0
sS'accepts_from'
p21
NsS'prefs'
p22
I01
sS'name'
p23
S'Fanart.tv'
p24
sa(dp25
S'media_types'
p26
(lp27
S'TV_Show'
p28
asS'primary_provider'
p29
I00
sS'fallback_agent'
p30
NsS'contributes_to'
p31
(lp32
S'com.plexapp.agents.thetvdb'
p33
aS'com.plexapp.agents.themoviedb'
p34
asg15
I01
sS'languages'
p35
(lp36
S'xn'
p37
asS'persist_stored_files'
p38
I01
sS'version'
p39
I0
sS'accepts_from'
p40
NsS'prefs'
p41
I01
sS'name'
p42
S'Fanart.tv'
p43
sa(dp44
S'media_types'
p45
(lp46
S'Artist'
p47
asS'primary_provider'
p48
I00
sS'fallback_agent'
p49
NsS'contributes_to'
p50
(lp51
S'com.plexapp.agents.lastfm'
p52
asg15
I01
sS'languages'
p53
(lp54
S'xn'
p55
asS'persist_stored_files'
p56
I01
sS'version'
p57
I0
sS'accepts_from'
p58
NsS'prefs'
p59
I01
sS'name'
p60
S'Fanart.tv'
p61
sa(dp62
S'media_types'
p63
(lp64
S'Album'
p65
asS'primary_provider'
p66
I00
sS'fallback_agent'
p67
NsS'contributes_to'
p68
(lp69
S'com.plexapp.agents.lastfm'
p70
asg15
I01
sS'languages'
p71
(lp72
S'xn'
p73
asS'persist_stored_files'
p74
I01
sS'version'
p75
I0
sS'accepts_from'
p76
NsS'prefs'
p77
I01
sS'name'
p78
S'Fanart.tv'
p79
sasS'com.plexapp.agents.none'
p80
(lp81
(dp82
S'media_types'
p83
(lp84
S'Movie'
p85
asS'primary_provider'
p86
I01
sS'fallback_agent'
p87
NsS'contributes_to'
p88
Nsg15
I00
sS'languages'
p89
(lp90
S'xn'
p91
asS'persist_stored_files'
p92
I01
sS'version'
p93
I0
sS'accepts_from'
p94
NsS'prefs'
p95
I00
sS'name'
p96
S'Personal Media'
p97
sa(dp98
S'media_types'
p99
(lp100
S'TV_Show'
p101
asS'primary_provider'
p102
I01
sS'fallback_agent'
p103
NsS'contributes_to'
p104
Nsg15
I00
sS'languages'
p105
(lp106
S'xn'
p107
asS'persist_stored_files'
p108
I01
sS'version'
p109
I0
sS'accepts_from'
p110
NsS'prefs'
p111
I00
sS'name'
p112
S'Personal Media Shows'
p113
sa(dp114
S'media_types'
p115
(lp116
S'Artist'
p117
asS'primary_provider'
p118
I01
sS'fallback_agent'
p119
NsS'contributes_to'
p120
Nsg15
I00
sS'languages'
p121
(lp122
S'xn'
p123
asS'persist_stored_files'
p124
I01
sS'version'
p125
I0
sS'accepts_from'
p126
NsS'prefs'
p127
I00
sS'name'
p128
S'Personal Media Artists'
p129
sa(dp130
S'media_types'
p131
(lp132
S'Album'
p133
asS'primary_provider'
p134
I01
sS'fallback_agent'
p135
NsS'contributes_to'
p136
Nsg15
I00
sS'languages'
p137
(lp138
S'xn'
p139
asS'persist_stored_files'
p140
I01
sS'version'
p141
I0
sS'accepts_from'
p142
NsS'prefs'
p143
I00
sS'name'
p144
S'Personal Media Albums'
p145
sa(dp146
S'media_types'
p147
(lp148
S'Photo'
p149
asS'primary_provider'
p150
I01
sS'fallback_agent'
p151
NsS'contributes_to'
p152
Nsg15
I00
sS'languages'
p153
(lp154
S'en'
p155
aS'ar'
p156
aS'bg'
p157
aS'ca'
p158
aS'cs'
p159
aS'cy'
p160
aS'da'
p161
aS'de'
p162
aS'el'
p163
aS'es'
p164
aS'et'
p165
aS'fa'
p166
aS'fi'
p167
aS'fr'
p168
aS'he'
p169
aS'hi'
p170
aS'hr'
p171
aS'ht'
p172
aS'hu'
p173
aS'id'
p174
aS'it'
p175
aS'ja'
p176
aS'ko'
p177
aS'lt'
p178
aS'lv'
p179
aS'ms'
p180
aS'mt'
p181
aS'nl'
p182
aS'no'
p183
aS'pl'
p184
aS'pt'
p185
aS'ro'
p186
aS'ru'
p187
aS'sk'
p188
aS'sv'
p189
aS'sl'
p190
aS'sr'
p191
aS'th'
p192
aS'tr'
p193
aS'uk'
p194
aS'ur'
p195
aS'vi'
p196
aS'zh'
p197
aS'xn'
p198
asS'persist_stored_files'
p199
I01
sS'version'
p200
I0
sS'accepts_from'
p201
NsS'prefs'
p202
I00
sS'name'
p203
S'Photos'
p204
sasS'tv.plex.agents.music'
p205
(lp206
(dp207
S'media_types'
p208
(lp209
S'Artist'
p210
asS'primary_provider'
p211
I01
sS'fallback_agent'
p212
NsS'contributes_to'
p213
(lp214
S'com.plexapp.agents.localmedia'
p215
asg15
I01
sS'languages'
p216
(lp217
S'en'
p218
aS'ar'
p219
aS'bg'
p220
aS'zh'
p221
aS'hr'
p222
aS'cs'
p223
aS'da'
p224
aS'nl'
p225
aS'fi'
p226
aS'fr'
p227
aS'de'
p228
aS'el'
p229
aS'hu'
p230
aS'id'
p231
aS'it'
p232
aS'ja'
p233
aS'ko'
p234
aS'nn'
p235
aS'pl'
p236
aS'pt'
p237
aS'ro'
p238
aS'ru'
p239
aS'sr'
p240
aS'sk'
p241
aS'es'
p242
aS'sv'
p243
aS'th'
p244
aS'tr'
p245
aS'vi'
p246
aS'xx'
p247
asS'persist_stored_files'
p248
I01
sS'version'
p249
I0
sS'accepts_from'
p250
NsS'prefs'
p251
I01
sS'name'
p252
S'Plex Music'
p253
sa(dp254
S'media_types'
p255
(lp256
S'Album'
p257
asS'primary_provider'
p258
I01
sS'fallback_agent'
p259
NsS'contributes_to'
p260
(lp261
S'com.plexapp.agents.localmedia'
p262
asg15
I01
sS'languages'
p263
g217
sS'persist_stored_files'
p264
I01
sS'version'
p265
I0
sS'accepts_from'
p266
NsS'prefs'
p267
I01
sS'name'
p268
S'Plex Music'
p269
sasS'com.plexapp.agents.opensubtitles'
p270
(lp271
(dp272
S'media_types'
p273
(lp274
S'Movie'
p275
asS'primary_provider'
p276
I00
sS'fallback_agent'
p277
NsS'contributes_to'
p278
(lp279
S'com.plexapp.agents.imdb'
p280
asg15
I00
sS'languages'
p281
(lp282
S'xn'
p283
asS'persist_stored_files'
p284
I01
sS'version'
p285
I0
sS'accepts_from'
p286
NsS'prefs'
p287
I01
sS'name'
p288
S'OpenSubtitles.org'
p289
sa(dp290
S'media_types'
p291
(lp292
S'TV_Show'
p293
asS'primary_provider'
p294
I00
sS'fallback_agent'
p295
NsS'contributes_to'
p296
(lp297
S'com.plexapp.agents.thetvdb'
p298
asg15
I00
sS'languages'
p299
(lp300
S'xn'
p301
asS'persist_stored_files'
p302
I01
sS'version'
p303
I0
sS'accepts_from'
p304
NsS'prefs'
p305
I01
sS'name'
p306
S'OpenSubtitles.org'
p307
sasS'com.plexapp.agents.imdb'
p308
(lp309
(dp310
S'media_types'
p311
(lp312
S'Movie'
p313
asS'accepts_from'
p314
(lp315
S'com.plexapp.agents.localmedia'
p316
asS'fallback_agent'
p317
NsS'contributes_to'
p318
(lp319
S'com.plexapp.agents.themoviedb'
p320
asS'has_attribution'
p321
I01
sS'languages'
p322
(lp323
S'en'
p324
aS'sv'
p325
aS'fr'
p326
aS'es'
p327
aS'nl'
p328
aS'de'
p329
aS'it'
p330
aS'da'
p331
aS'ar'
p332
aS'ca'
p333
aS'zh'
p334
aS'cs'
p335
aS'et'
p336
aS'fi'
p337
aS'el'
p338
aS'he'
p339
aS'hi'
p340
aS'hu'
p341
aS'id'
p342
aS'ja'
p343
aS'ko'
p344
aS'lv'
p345
aS'no'
p346
aS'fa'
p347
aS'pl'
p348
aS'pt'
p349
aS'ro'
p350
aS'ru'
p351
aS'sk'
p352
aS'th'
p353
aS'tr'
p354
aS'uk'
p355
aS'vi'
p356
asS'persist_stored_files'
p357
I01
sS'version'
p358
I0
sS'primary_provider'
p359
I01
sS'prefs'
p360
I01
sS'name'
p361
S'Plex Movie'
p362
sasS'com.plexapp.agents.lyricfind'
p363
(lp364
(dp365
S'media_types'
p366
(lp367
S'Album'
p368
asS'primary_provider'
p369
I00
sS'fallback_agent'
p370
NsS'contributes_to'
p371
(lp372
S'com.plexapp.agents.lastfm'
p373
aS'tv.plex.agents.music'
p374
aS'org.musicbrainz.agents.music'
p375
asg15
I01
sS'languages'
p376
(lp377
S'xn'
p378
asS'persist_stored_files'
p379
I01
sS'version'
p380
I0
sS'accepts_from'
p381
NsS'prefs'
p382
I00
sS'name'
p383
S'LyricFind'
p384
sasS'com.plexapp.agents.thetvdb'
p385
(lp386
(dp387
S'media_types'
p388
(lp389
S'TV_Show'
p390
asS'primary_provider'
p391
I01
sS'fallback_agent'
p392
NsS'contributes_to'
p393
NsS'has_attribution'
p394
I01
sS'languages'
p395
(lp396
S'en'
p397
aS'fr'
p398
aS'zh'
p399
aS'sv'
p400
aS'no'
p401
aS'da'
p402
aS'fi'
p403
aS'nl'
p404
aS'de'
p405
aS'it'
p406
aS'es'
p407
aS'pl'
p408
aS'hu'
p409
aS'el'
p410
aS'tr'
p411
aS'ru'
p412
aS'he'
p413
aS'ja'
p414
aS'pt'
p415
aS'cs'
p416
aS'ko'
p417
aS'sl'
p418
aS'hr'
p419
asS'persist_stored_files'
p420
I01
sS'version'
p421
I0
sS'accepts_from'
p422
NsS'prefs'
p423
I01
sS'name'
p424
S'TheTVDB'
p425
sasS'tv.plex.agents.movie'
p426
(lp427
(dp428
S'media_types'
p429
(lp430
S'Movie'
p431
asS'primary_provider'
p432
I01
sS'fallback_agent'
p433
NsS'contributes_to'
p434
Nsg15
I01
sS'languages'
p435
(lp436
sS'persist_stored_files'
p437
I01
sS'version'
p438
I0
sS'accepts_from'
p439
NsS'prefs'
p440
I01
sS'name'
p441
S'Plex Movie'
p442
sasS'tv.plex.agents.series'
p443
(lp444
(dp445
S'media_types'
p446
(lp447
S'TV_Show'
p448
asS'primary_provider'
p449
I01
sS'fallback_agent'
p450
NsS'contributes_to'
p451
Nsg15
I01
sS'languages'
p452
(lp453
sS'persist_stored_files'
p454
I01
sS'version'
p455
I0
sS'accepts_from'
p456
NsS'prefs'
p457
I01
sS'name'
p458
S'Plex TV Series'
p459
sasS'com.plexapp.agents.plexthememusic'
p460
(lp461
(dp462
S'media_types'
p463
(lp464
S'TV_Show'
p465
asS'primary_provider'
p466
I00
sS'fallback_agent'
p467
NsS'contributes_to'
p468
(lp469
S'com.plexapp.agents.thetvdb'
p470
aS'com.plexapp.agents.thetvdbdvdorder'
p471
aS'com.plexapp.agents.themoviedb'
p472
asg394
I00
sS'languages'
p473
(lp474
S'xn'
p475
asS'persist_stored_files'
p476
I01
sS'version'
p477
I0
sS'accepts_from'
p478
NsS'prefs'
p479
I00
sS'name'
p480
S'Plex Theme Music'
p481
sasS'org.musicbrainz.agents.music'
p482
(lp483
(dp484
S'media_types'
p485
(lp486
S'Artist'
p487
asS'primary_provider'
p488
I01
sS'fallback_agent'
p489
NsS'contributes_to'
p490
Nsg15
I01
sS'languages'
p491
(lp492
S'en'
p493
aS'ar'
p494
aS'bg'
p495
aS'zh'
p496
aS'hr'
p497
aS'cs'
p498
aS'da'
p499
aS'nl'
p500
aS'fi'
p501
aS'fr'
p502
aS'de'
p503
aS'el'
p504
aS'hu'
p505
aS'id'
p506
aS'it'
p507
aS'ja'
p508
aS'ko'
p509
aS'nn'
p510
aS'pl'
p511
aS'pt'
p512
aS'ro'
p513
aS'ru'
p514
aS'sr'
p515
aS'sk'
p516
aS'es'
p517
aS'sv'
p518
aS'th'
p519
aS'tr'
p520
aS'vi'
p521
aS'xx'
p522
asS'persist_stored_files'
p523
I01
sS'version'
p524
I0
sS'accepts_from'
p525
NsS'prefs'
p526
I01
sS'name'
p527
S'Musicbrainz'
p528
sa(dp529
S'media_types'
p530
(lp531
S'Album'
p532
asS'primary_provider'
p533
I01
sS'fallback_agent'
p534
NsS'contributes_to'
p535
Nsg15
I01
sS'languages'
p536
g492
sS'persist_stored_files'
p537
I01
sS'version'
p538
I0
sS'accepts_from'
p539
NsS'prefs'
p540
I01
sS'name'
p541
S'Musicbrainz'
p542
sasS'com.plexapp.agents.themoviedb'
p543
(lp544
(dp545
S'media_types'
p546
(lp547
S'Movie'
p548
asS'primary_provider'
p549
I01
sS'fallback_agent'
p550
NsS'contributes_to'
p551
Nsg15
I01
sS'languages'
p552
(lp553
S'en'
p554
aS'cs'
p555
aS'da'
p556
aS'de'
p557
aS'el'
p558
aS'es'
p559
aS'fi'
p560
aS'fr'
p561
aS'he'
p562
aS'hr'
p563
aS'hu'
p564
aS'it'
p565
aS'lv'
p566
aS'lt'
p567
aS'nl'
p568
aS'no'
p569
aS'pl'
p570
aS'pt'
p571
aS'ru'
p572
aS'sk'
p573
aS'sv'
p574
aS'th'
p575
aS'tr'
p576
aS'vi'
p577
aS'zh'
p578
aS'ko'
p579
asS'persist_stored_files'
p580
I01
sS'version'
p581
I0
sS'accepts_from'
p582
(lp583
S'com.plexapp.agents.localmedia'
p584
asS'prefs'
p585
I01
sS'name'
p586
S'The Movie Database'
p587
sa(dp588
S'media_types'
p589
(lp590
S'TV_Show'
p591
asS'primary_provider'
p592
I01
sS'fallback_agent'
p593
NsS'contributes_to'
p594
(lp595
S'com.plexapp.agents.thetvdb'
p596
asg15
I01
sS'languages'
p597
g553
sS'persist_stored_files'
p598
I01
sS'version'
p599
I0
sS'accepts_from'
p600
(lp601
S'com.plexapp.agents.localmedia'
p602
aS'com.plexapp.agents.thetvdb'
p603
asS'prefs'
p604
I01
sS'name'
p605
S'The Movie Database'
p606
sasS'com.plexapp.agents.htbackdrops'
p607
(lp608
(dp609
S'media_types'
p610
(lp611
S'Artist'
p612
asS'primary_provider'
p613
I00
sS'fallback_agent'
p614
NsS'contributes_to'
p615
(lp616
S'com.plexapp.agents.lastfm'
p617
asg15
I01
sS'languages'
p618
(lp619
S'ab'
p620
aS'aa'
p621
aS'af'
p622
aS'ak'
p623
aS'sq'
p624
aS'am'
p625
aS'ar'
p626
aS'an'
p627
aS'hy'
p628
aS'as'
p629
aS'av'
p630
aS'ae'
p631
aS'ay'
p632
aS'az'
p633
aS'bm'
p634
aS'ba'
p635
aS'eu'
p636
aS'be'
p637
aS'bn'
p638
aS'bh'
p639
aS'bi'
p640
aS'bs'
p641
aS'pb'
p642
aS'br'
p643
aS'bg'
p644
aS'my'
p645
aS'ca'
p646
aS'ch'
p647
aS'ce'
p648
aS'ny'
p649
aS'zh'
p650
aS'cu'
p651
aS'cv'
p652
aS'kw'
p653
aS'co'
p654
aS'cr'
p655
aS'hr'
p656
aS'cs'
p657
aS'da'
p658
aS'dv'
p659
aS'nl'
p660
aS'dz'
p661
aS'en'
p662
aS'eo'
p663
aS'et'
p664
aS'ee'
p665
aS'fo'
p666
aS'fj'
p667
aS'fi'
p668
aS'fr'
p669
aS'fy'
p670
aS'ff'
p671
aS'gd'
p672
aS'gl'
p673
aS'lg'
p674
aS'ka'
p675
aS'de'
p676
aS'el'
p677
aS'gn'
p678
aS'gu'
p679
aS'ht'
p680
aS'ha'
p681
aS'he'
p682
aS'hz'
p683
aS'hi'
p684
aS'ho'
p685
aS'hu'
p686
aS'is'
p687
aS'io'
p688
aS'ig'
p689
aS'id'
p690
aS'ia'
p691
aS'ie'
p692
aS'iu'
p693
aS'ik'
p694
aS'ga'
p695
aS'it'
p696
aS'ja'
p697
aS'jv'
p698
aS'kl'
p699
aS'kn'
p700
aS'kr'
p701
aS'ks'
p702
aS'kk'
p703
aS'km'
p704
aS'ki'
p705
aS'rw'
p706
aS'ky'
p707
aS'kv'
p708
aS'kg'
p709
aS'ko'
p710
aS'kj'
p711
aS'ku'
p712
aS'lo'
p713
aS'la'
p714
aS'lv'
p715
aS'li'
p716
aS'ln'
p717
aS'lt'
p718
aS'lu'
p719
aS'lb'
p720
aS'mk'
p721
aS'mg'
p722
aS'ms'
p723
aS'ml'
p724
aS'mt'
p725
aS'gv'
p726
aS'mi'
p727
aS'mr'
p728
aS'mh'
p729
aS'mo'
p730
aS'mn'
p731
aS'na'
p732
aS'nv'
p733
aS'ng'
p734
aS'ne'
p735
aS'xn'
p736
aS'nd'
p737
aS'no'
p738
aS'nb'
p739
aS'nn'
p740
aS'oc'
p741
aS'oj'
p742
aS'or'
p743
aS'om'
p744
aS'os'
p745
aS'pi'
p746
aS'pa'
p747
aS'fa'
p748
aS'pl'
p749
aS'pt'
p750
aS'ps'
p751
aS'qu'
p752
aS'rm'
p753
aS'ro'
p754
aS'rn'
p755
aS'ru'
p756
aS'se'
p757
aS'sm'
p758
aS'sg'
p759
aS'sa'
p760
aS'sc'
p761
aS'sr'
p762
aS'sn'
p763
aS'ii'
p764
aS'sd'
p765
aS'si'
p766
aS'sk'
p767
aS'sl'
p768
aS'so'
p769
aS'st'
p770
aS'nr'
p771
aS'es'
p772
aS'su'
p773
aS'sw'
p774
aS'ss'
p775
aS'sv'
p776
aS'tl'
p777
aS'ty'
p778
aS'tg'
p779
aS'ta'
p780
aS'tt'
p781
aS'te'
p782
aS'th'
p783
aS'bo'
p784
aS'ti'
p785
aS'to'
p786
aS'ts'
p787
aS'tn'
p788
aS'tr'
p789
aS'tk'
p790
aS'tw'
p791
aS'ug'
p792
aS'uk'
p793
aS'ur'
p794
aS'uz'
p795
aS've'
p796
aS'vi'
p797
aS'vo'
p798
aS'wa'
p799
aS'cy'
p800
aS'wo'
p801
aS'xh'
p802
aS'yi'
p803
aS'yo'
p804
aS'za'
p805
aS'zu'
p806
asS'persist_stored_files'
p807
I01
sS'version'
p808
I0
sS'accepts_from'
p809
NsS'prefs'
p810
I00
sS'name'
p811
S'Home Theater Backdrops'
p812
sasS'com.plexapp.agents.movieposterdb'
p813
(lp814
(dp815
S'media_types'
p816
(lp817
S'Movie'
p818
asS'primary_provider'
p819
I00
sS'fallback_agent'
p820
NsS'contributes_to'
p821
(lp822
S'com.plexapp.agents.imdb'
p823
asg15
I01
sS'languages'
p824
(lp825
S'xn'
p826
asS'persist_stored_files'
p827
I01
sS'version'
p828
I0
sS'accepts_from'
p829
NsS'prefs'
p830
I00
sS'name'
p831
S'CineMaterial'
p832
sasS'com.plexapp.agents.localmedia'
p833
(lp834
(dp835
S'media_types'
p836
(lp837
S'Movie'
p838
asS'primary_provider'
p839
I00
sS'fallback_agent'
p840
NsS'contributes_to'
p841
(lp842
S'com.plexapp.agents.imdb'
p843
aS'com.plexapp.agents.none'
p844
asg394
I00
sS'languages'
p845
(lp846
S'xn'
p847
asS'persist_stored_files'
p848
I00
sS'version'
p849
I0
sS'accepts_from'
p850
NsS'prefs'
p851
I01
sS'name'
p852
S'Local Media Assets (Movies)'
p853
sa(dp854
S'media_types'
p855
(lp856
S'TV_Show'
p857
asS'primary_provider'
p858
I00
sS'fallback_agent'
p859
NsS'contributes_to'
p860
(lp861
S'com.plexapp.agents.thetvdb'
p862
aS'com.plexapp.agents.none'
p863
asg394
I00
sS'languages'
p864
(lp865
S'xn'
p866
asS'persist_stored_files'
p867
I00
sS'version'
p868
I0
sS'accepts_from'
p869
NsS'prefs'
p870
I01
sS'name'
p871
S'Local Media Assets (TV)'
p872
sa(dp873
S'media_types'
p874
(lp875
S'Artist'
p876
asS'primary_provider'
p877
I00
sS'fallback_agent'
p878
NsS'contributes_to'
p879
(lp880
S'com.plexapp.agents.discogs'
p881
aS'com.plexapp.agents.lastfm'
p882
aS'com.plexapp.agents.plexmusic'
p883
aS'com.plexapp.agents.none'
p884
aS'tv.plex.agents.music'
p885
aS'org.musicbrainz.agents.music'
p886
asg394
I00
sS'languages'
p887
(lp888
S'xn'
p889
asS'persist_stored_files'
p890
I00
sS'version'
p891
I0
sS'accepts_from'
p892
NsS'prefs'
p893
I01
sS'name'
p894
S'Local Media Assets (Artists)'
p895
sa(dp896
S'media_types'
p897
(lp898
S'Artist'
p899
asS'primary_provider'
p900
I00
sS'fallback_agent'
p901
NsS'contributes_to'
p902
(lp903
S'com.plexapp.agents.plexmusic'
p904
asg394
I00
sS'languages'
p905
g888
sS'persist_stored_files'
p906
I00
sS'version'
p907
I2
sS'accepts_from'
p908
NsS'prefs'
p909
I01
sS'name'
p910
S'Local Media Assets (Artists)'
p911
sa(dp912
S'media_types'
p913
(lp914
S'Album'
p915
asS'primary_provider'
p916
I00
sS'fallback_agent'
p917
NsS'contributes_to'
p918
(lp919
S'com.plexapp.agents.discogs'
p920
aS'com.plexapp.agents.lastfm'
p921
aS'com.plexapp.agents.plexmusic'
p922
aS'com.plexapp.agents.none'
p923
aS'tv.plex.agents.music'
p924
aS'org.musicbrainz.agents.music'
p925
asg394
I00
sS'languages'
p926
(lp927
S'xn'
p928
asS'persist_stored_files'
p929
I00
sS'version'
p930
I0
sS'accepts_from'
p931
NsS'prefs'
p932
I01
sS'name'
p933
S'Local Media Assets (Albums)'
p934
sasS'com.plexapp.agents.lastfm'
p935
(lp936
(dp937
S'media_types'
p938
(lp939
S'Artist'
p940
asS'primary_provider'
p941
I01
sS'fallback_agent'
p942
NsS'contributes_to'
p943
Nsg15
I01
sS'languages'
p944
(lp945
S'en'
p946
aS'sv'
p947
aS'fr'
p948
aS'es'
p949
aS'de'
p950
aS'pl'
p951
aS'it'
p952
aS'pt'
p953
aS'ja'
p954
aS'tr'
p955
aS'ru'
p956
aS'zh'
p957
asS'persist_stored_files'
p958
I01
sS'version'
p959
I0
sS'accepts_from'
p960
NsS'prefs'
p961
I01
sS'name'
p962
S'Last.fm'
p963
sa(dp964
S'media_types'
p965
(lp966
S'Album'
p967
asS'primary_provider'
p968
I01
sS'fallback_agent'
p969
NsS'contributes_to'
p970
Nsg15
I01
sS'languages'
p971
(lp972
S'en'
p973
aS'sv'
p974
aS'fr'
p975
aS'es'
p976
aS'de'
p977
aS'pl'
p978
aS'it'
p979
aS'pt'
p980
aS'ja'
p981
aS'tr'
p982
aS'ru'
p983
aS'zh'
p984
asS'persist_stored_files'
p985
I01
sS'version'
p986
I0
sS'accepts_from'
p987
NsS'prefs'
p988
I01
sS'name'
p989
S'Last.fm'
p990
sass.