(dp0
S'_AgentService:AgentInfo'
p1
(dp2
S'com.plexapp.agents.fanarttv'
p3
(lp4
(dp5
S'media_types'
p6
(lp7
S'Movie'
p8
asS'accepts_from'
p9
NsS'fallback_agent'
p10
NsS'contributes_to'
p11
(lp12
S'com.plexapp.agents.imdb'
p13
aS'com.plexapp.agents.themoviedb'
p14
asS'has_attribution'
p15
I01
sS'languages'
p16
(lp17
S'xn'
p18
asS'persist_stored_files'
p19
I01
sS'version'
p20
I0
sS'primary_provider'
p21
I00
sS'prefs'
p22
I01
sS'name'
p23
S'Fanart.tv'
p24
sa(dp25
S'media_types'
p26
(lp27
S'TV_Show'
p28
asS'accepts_from'
p29
NsS'fallback_agent'
p30
NsS'contributes_to'
p31
(lp32
S'com.plexapp.agents.thetvdb'
p33
aS'com.plexapp.agents.themoviedb'
p34
asg15
I01
sS'languages'
p35
(lp36
S'xn'
p37
asS'persist_stored_files'
p38
I01
sS'version'
p39
I0
sS'primary_provider'
p40
I00
sS'prefs'
p41
I01
sS'name'
p42
S'Fanart.tv'
p43
sa(dp44
S'media_types'
p45
(lp46
S'Artist'
p47
asS'accepts_from'
p48
NsS'fallback_agent'
p49
NsS'contributes_to'
p50
(lp51
S'com.plexapp.agents.lastfm'
p52
asg15
I01
sS'languages'
p53
(lp54
S'xn'
p55
asS'persist_stored_files'
p56
I01
sS'version'
p57
I0
sS'primary_provider'
p58
I00
sS'prefs'
p59
I01
sS'name'
p60
S'Fanart.tv'
p61
sa(dp62
S'media_types'
p63
(lp64
S'Album'
p65
asS'accepts_from'
p66
NsS'fallback_agent'
p67
NsS'contributes_to'
p68
(lp69
S'com.plexapp.agents.lastfm'
p70
asg15
I01
sS'languages'
p71
(lp72
S'xn'
p73
asS'persist_stored_files'
p74
I01
sS'version'
p75
I0
sS'primary_provider'
p76
I00
sS'prefs'
p77
I01
sS'name'
p78
S'Fanart.tv'
p79
sasS'com.plexapp.agents.none'
p80
(lp81
(dp82
S'media_types'
p83
(lp84
S'Movie'
p85
asS'accepts_from'
p86
NsS'fallback_agent'
p87
NsS'contributes_to'
p88
Nsg15
I00
sS'languages'
p89
(lp90
S'xn'
p91
asS'persist_stored_files'
p92
I01
sS'version'
p93
I0
sS'primary_provider'
p94
I01
sS'prefs'
p95
I00
sS'name'
p96
S'Personal Media'
p97
sa(dp98
S'media_types'
p99
(lp100
S'TV_Show'
p101
asS'accepts_from'
p102
NsS'fallback_agent'
p103
NsS'contributes_to'
p104
Nsg15
I00
sS'languages'
p105
(lp106
S'xn'
p107
asS'persist_stored_files'
p108
I01
sS'version'
p109
I0
sS'primary_provider'
p110
I01
sS'prefs'
p111
I00
sS'name'
p112
S'Personal Media Shows'
p113
sa(dp114
S'media_types'
p115
(lp116
S'Artist'
p117
asS'accepts_from'
p118
NsS'fallback_agent'
p119
NsS'contributes_to'
p120
Nsg15
I00
sS'languages'
p121
(lp122
S'xn'
p123
asS'persist_stored_files'
p124
I01
sS'version'
p125
I0
sS'primary_provider'
p126
I01
sS'prefs'
p127
I00
sS'name'
p128
S'Personal Media Artists'
p129
sa(dp130
S'media_types'
p131
(lp132
S'Album'
p133
asS'accepts_from'
p134
NsS'fallback_agent'
p135
NsS'contributes_to'
p136
Nsg15
I00
sS'languages'
p137
(lp138
S'xn'
p139
asS'persist_stored_files'
p140
I01
sS'version'
p141
I0
sS'primary_provider'
p142
I01
sS'prefs'
p143
I00
sS'name'
p144
S'Personal Media Albums'
p145
sa(dp146
S'media_types'
p147
(lp148
S'Photo'
p149
asS'accepts_from'
p150
NsS'fallback_agent'
p151
NsS'contributes_to'
p152
Nsg15
I00
sS'languages'
p153
(lp154
S'en'
p155
aS'ar'
p156
aS'bg'
p157
aS'ca'
p158
aS'cs'
p159
aS'cy'
p160
aS'da'
p161
aS'de'
p162
aS'el'
p163
aS'es'
p164
aS'et'
p165
aS'fa'
p166
aS'fi'
p167
aS'fr'
p168
aS'he'
p169
aS'hi'
p170
aS'hr'
p171
aS'ht'
p172
aS'hu'
p173
aS'id'
p174
aS'it'
p175
aS'ja'
p176
aS'ko'
p177
aS'lt'
p178
aS'lv'
p179
aS'ms'
p180
aS'mt'
p181
aS'nl'
p182
aS'no'
p183
aS'pl'
p184
aS'pt'
p185
aS'ro'
p186
aS'ru'
p187
aS'sk'
p188
aS'sv'
p189
aS'sl'
p190
aS'sr'
p191
aS'th'
p192
aS'tr'
p193
aS'uk'
p194
aS'ur'
p195
aS'vi'
p196
aS'zh'
p197
aS'xn'
p198
asS'persist_stored_files'
p199
I01
sS'version'
p200
I0
sS'primary_provider'
p201
I01
sS'prefs'
p202
I00
sS'name'
p203
S'Photos'
p204
sasS'tv.plex.agents.music'
p205
(lp206
(dp207
S'media_types'
p208
(lp209
S'Artist'
p210
asS'accepts_from'
p211
NsS'fallback_agent'
p212
NsS'contributes_to'
p213
(lp214
S'com.plexapp.agents.localmedia'
p215
asg15
I01
sS'languages'
p216
(lp217
S'en'
p218
aS'ar'
p219
aS'bg'
p220
aS'zh'
p221
aS'hr'
p222
aS'cs'
p223
aS'da'
p224
aS'nl'
p225
aS'fi'
p226
aS'fr'
p227
aS'de'
p228
aS'el'
p229
aS'hu'
p230
aS'id'
p231
aS'it'
p232
aS'ja'
p233
aS'ko'
p234
aS'nn'
p235
aS'pl'
p236
aS'pt'
p237
aS'ro'
p238
aS'ru'
p239
aS'sr'
p240
aS'sk'
p241
aS'es'
p242
aS'sv'
p243
aS'th'
p244
aS'tr'
p245
aS'vi'
p246
aS'xx'
p247
asS'persist_stored_files'
p248
I01
sS'version'
p249
I0
sS'primary_provider'
p250
I01
sS'prefs'
p251
I01
sS'name'
p252
S'Plex Music'
p253
sa(dp254
S'media_types'
p255
(lp256
S'Album'
p257
asS'accepts_from'
p258
NsS'fallback_agent'
p259
NsS'contributes_to'
p260
(lp261
S'com.plexapp.agents.localmedia'
p262
asg15
I01
sS'languages'
p263
g217
sS'persist_stored_files'
p264
I01
sS'version'
p265
I0
sS'primary_provider'
p266
I01
sS'prefs'
p267
I01
sS'name'
p268
S'Plex Music'
p269
sasS'com.plexapp.agents.opensubtitles'
p270
(lp271
(dp272
S'media_types'
p273
(lp274
S'Movie'
p275
asS'accepts_from'
p276
NsS'fallback_agent'
p277
NsS'contributes_to'
p278
(lp279
S'com.plexapp.agents.imdb'
p280
asg15
I00
sS'languages'
p281
(lp282
S'xn'
p283
asS'persist_stored_files'
p284
I01
sS'version'
p285
I0
sS'primary_provider'
p286
I00
sS'prefs'
p287
I01
sS'name'
p288
S'OpenSubtitles.org'
p289
sa(dp290
S'media_types'
p291
(lp292
S'TV_Show'
p293
asS'accepts_from'
p294
NsS'fallback_agent'
p295
NsS'contributes_to'
p296
(lp297
S'com.plexapp.agents.thetvdb'
p298
asg15
I00
sS'languages'
p299
(lp300
S'xn'
p301
asS'persist_stored_files'
p302
I01
sS'version'
p303
I0
sS'primary_provider'
p304
I00
sS'prefs'
p305
I01
sS'name'
p306
S'OpenSubtitles.org'
p307
sasS'com.plexapp.agents.imdb'
p308
(lp309
(dp310
S'media_types'
p311
(lp312
S'Movie'
p313
asS'primary_provider'
p314
I01
sS'fallback_agent'
p315
NsS'contributes_to'
p316
(lp317
S'com.plexapp.agents.themoviedb'
p318
asS'has_attribution'
p319
I01
sS'languages'
p320
(lp321
S'en'
p322
aS'sv'
p323
aS'fr'
p324
aS'es'
p325
aS'nl'
p326
aS'de'
p327
aS'it'
p328
aS'da'
p329
aS'ar'
p330
aS'ca'
p331
aS'zh'
p332
aS'cs'
p333
aS'et'
p334
aS'fi'
p335
aS'el'
p336
aS'he'
p337
aS'hi'
p338
aS'hu'
p339
aS'id'
p340
aS'ja'
p341
aS'ko'
p342
aS'lv'
p343
aS'no'
p344
aS'fa'
p345
aS'pl'
p346
aS'pt'
p347
aS'ro'
p348
aS'ru'
p349
aS'sk'
p350
aS'th'
p351
aS'tr'
p352
aS'uk'
p353
aS'vi'
p354
asS'persist_stored_files'
p355
I01
sS'version'
p356
I0
sS'accepts_from'
p357
(lp358
S'com.plexapp.agents.localmedia'
p359
asS'prefs'
p360
I01
sS'name'
p361
S'Plex Movie'
p362
sasS'com.plexapp.agents.lyricfind'
p363
(lp364
(dp365
S'media_types'
p366
(lp367
S'Album'
p368
asS'accepts_from'
p369
NsS'fallback_agent'
p370
NsS'contributes_to'
p371
(lp372
S'com.plexapp.agents.lastfm'
p373
aS'tv.plex.agents.music'
p374
aS'org.musicbrainz.agents.music'
p375
asg15
I01
sS'languages'
p376
(lp377
S'xn'
p378
asS'persist_stored_files'
p379
I01
sS'version'
p380
I0
sS'primary_provider'
p381
I00
sS'prefs'
p382
I00
sS'name'
p383
S'LyricFind'
p384
sasS'com.plexapp.agents.thetvdb'
p385
(lp386
(dp387
S'media_types'
p388
(lp389
S'TV_Show'
p390
asS'accepts_from'
p391
NsS'fallback_agent'
p392
NsS'contributes_to'
p393
NsS'has_attribution'
p394
I01
sS'languages'
p395
(lp396
S'en'
p397
aS'fr'
p398
aS'zh'
p399
aS'sv'
p400
aS'no'
p401
aS'da'
p402
aS'fi'
p403
aS'nl'
p404
aS'de'
p405
aS'it'
p406
aS'es'
p407
aS'pl'
p408
aS'hu'
p409
aS'el'
p410
aS'tr'
p411
aS'ru'
p412
aS'he'
p413
aS'ja'
p414
aS'pt'
p415
aS'cs'
p416
aS'ko'
p417
aS'sl'
p418
aS'hr'
p419
asS'persist_stored_files'
p420
I01
sS'version'
p421
I0
sS'primary_provider'
p422
I01
sS'prefs'
p423
I01
sS'name'
p424
S'TheTVDB'
p425
sasS'tv.plex.agents.movie'
p426
(lp427
(dp428
S'media_types'
p429
(lp430
S'Movie'
p431
asS'accepts_from'
p432
NsS'fallback_agent'
p433
NsS'contributes_to'
p434
Nsg15
I01
sS'languages'
p435
(lp436
sS'persist_stored_files'
p437
I01
sS'version'
p438
I0
sS'primary_provider'
p439
I01
sS'prefs'
p440
I01
sS'name'
p441
S'Plex Movie'
p442
sasS'tv.plex.agents.series'
p443
(lp444
(dp445
S'media_types'
p446
(lp447
S'TV_Show'
p448
asS'accepts_from'
p449
NsS'fallback_agent'
p450
NsS'contributes_to'
p451
Nsg15
I01
sS'languages'
p452
(lp453
sS'persist_stored_files'
p454
I01
sS'version'
p455
I0
sS'primary_provider'
p456
I01
sS'prefs'
p457
I01
sS'name'
p458
S'Plex TV Series'
p459
sasS'com.plexapp.agents.plexthememusic'
p460
(lp461
(dp462
S'media_types'
p463
(lp464
S'TV_Show'
p465
asS'accepts_from'
p466
NsS'fallback_agent'
p467
NsS'contributes_to'
p468
(lp469
S'com.plexapp.agents.thetvdb'
p470
aS'com.plexapp.agents.thetvdbdvdorder'
p471
aS'com.plexapp.agents.themoviedb'
p472
asg394
I00
sS'languages'
p473
(lp474
S'xn'
p475
asS'persist_stored_files'
p476
I01
sS'version'
p477
I0
sS'primary_provider'
p478
I00
sS'prefs'
p479
I00
sS'name'
p480
S'Plex Theme Music'
p481
sasS'org.musicbrainz.agents.music'
p482
(lp483
(dp484
S'media_types'
p485
(lp486
S'Artist'
p487
asS'accepts_from'
p488
NsS'fallback_agent'
p489
NsS'contributes_to'
p490
Nsg15
I01
sS'languages'
p491
(lp492
S'en'
p493
aS'ar'
p494
aS'bg'
p495
aS'zh'
p496
aS'hr'
p497
aS'cs'
p498
aS'da'
p499
aS'nl'
p500
aS'fi'
p501
aS'fr'
p502
aS'de'
p503
aS'el'
p504
aS'hu'
p505
aS'id'
p506
aS'it'
p507
aS'ja'
p508
aS'ko'
p509
aS'nn'
p510
aS'pl'
p511
aS'pt'
p512
aS'ro'
p513
aS'ru'
p514
aS'sr'
p515
aS'sk'
p516
aS'es'
p517
aS'sv'
p518
aS'th'
p519
aS'tr'
p520
aS'vi'
p521
aS'xx'
p522
asS'persist_stored_files'
p523
I01
sS'version'
p524
I0
sS'primary_provider'
p525
I01
sS'prefs'
p526
I01
sS'name'
p527
S'Musicbrainz'
p528
sa(dp529
S'media_types'
p530
(lp531
S'Album'
p532
asS'accepts_from'
p533
NsS'fallback_agent'
p534
NsS'contributes_to'
p535
Nsg15
I01
sS'languages'
p536
g492
sS'persist_stored_files'
p537
I01
sS'version'
p538
I0
sS'primary_provider'
p539
I01
sS'prefs'
p540
I01
sS'name'
p541
S'Musicbrainz'
p542
sasS'com.plexapp.agents.themoviedb'
p543
(lp544
(dp545
S'media_types'
p546
(lp547
S'Movie'
p548
asS'accepts_from'
p549
(lp550
S'com.plexapp.agents.localmedia'
p551
asS'fallback_agent'
p552
NsS'contributes_to'
p553
Nsg15
I01
sS'languages'
p554
(lp555
S'en'
p556
aS'cs'
p557
aS'da'
p558
aS'de'
p559
aS'el'
p560
aS'es'
p561
aS'fi'
p562
aS'fr'
p563
aS'he'
p564
aS'hr'
p565
aS'hu'
p566
aS'it'
p567
aS'lv'
p568
aS'lt'
p569
aS'nl'
p570
aS'no'
p571
aS'pl'
p572
aS'pt'
p573
aS'ru'
p574
aS'sk'
p575
aS'sv'
p576
aS'th'
p577
aS'tr'
p578
aS'vi'
p579
aS'zh'
p580
aS'ko'
p581
asS'persist_stored_files'
p582
I01
sS'version'
p583
I0
sS'primary_provider'
p584
I01
sS'prefs'
p585
I01
sS'name'
p586
S'The Movie Database'
p587
sa(dp588
S'media_types'
p589
(lp590
S'TV_Show'
p591
asS'accepts_from'
p592
(lp593
S'com.plexapp.agents.localmedia'
p594
aS'com.plexapp.agents.thetvdb'
p595
asS'fallback_agent'
p596
NsS'contributes_to'
p597
(lp598
S'com.plexapp.agents.thetvdb'
p599
asg15
I01
sS'languages'
p600
g555
sS'persist_stored_files'
p601
I01
sS'version'
p602
I0
sS'primary_provider'
p603
I01
sS'prefs'
p604
I01
sS'name'
p605
S'The Movie Database'
p606
sasS'com.plexapp.agents.localmedia'
p607
(lp608
(dp609
S'media_types'
p610
(lp611
S'Movie'
p612
asS'accepts_from'
p613
NsS'fallback_agent'
p614
NsS'contributes_to'
p615
(lp616
S'com.plexapp.agents.imdb'
p617
aS'com.plexapp.agents.none'
p618
asg394
I00
sS'languages'
p619
(lp620
S'xn'
p621
asS'persist_stored_files'
p622
I00
sS'version'
p623
I0
sS'primary_provider'
p624
I00
sS'prefs'
p625
I01
sS'name'
p626
S'Local Media Assets (Movies)'
p627
sa(dp628
S'media_types'
p629
(lp630
S'TV_Show'
p631
asS'accepts_from'
p632
NsS'fallback_agent'
p633
NsS'contributes_to'
p634
(lp635
S'com.plexapp.agents.thetvdb'
p636
aS'com.plexapp.agents.none'
p637
asg394
I00
sS'languages'
p638
(lp639
S'xn'
p640
asS'persist_stored_files'
p641
I00
sS'version'
p642
I0
sS'primary_provider'
p643
I00
sS'prefs'
p644
I01
sS'name'
p645
S'Local Media Assets (TV)'
p646
sa(dp647
S'media_types'
p648
(lp649
S'Artist'
p650
asS'accepts_from'
p651
NsS'fallback_agent'
p652
NsS'contributes_to'
p653
(lp654
S'com.plexapp.agents.discogs'
p655
aS'com.plexapp.agents.lastfm'
p656
aS'com.plexapp.agents.plexmusic'
p657
aS'com.plexapp.agents.none'
p658
aS'tv.plex.agents.music'
p659
aS'org.musicbrainz.agents.music'
p660
asg394
I00
sS'languages'
p661
(lp662
S'xn'
p663
asS'persist_stored_files'
p664
I00
sS'version'
p665
I0
sS'primary_provider'
p666
I00
sS'prefs'
p667
I01
sS'name'
p668
S'Local Media Assets (Artists)'
p669
sa(dp670
S'media_types'
p671
(lp672
S'Artist'
p673
asS'accepts_from'
p674
NsS'fallback_agent'
p675
NsS'contributes_to'
p676
(lp677
S'com.plexapp.agents.plexmusic'
p678
asg394
I00
sS'languages'
p679
g662
sS'persist_stored_files'
p680
I00
sS'version'
p681
I2
sS'primary_provider'
p682
I00
sS'prefs'
p683
I01
sS'name'
p684
S'Local Media Assets (Artists)'
p685
sa(dp686
S'media_types'
p687
(lp688
S'Album'
p689
asS'accepts_from'
p690
NsS'fallback_agent'
p691
NsS'contributes_to'
p692
(lp693
S'com.plexapp.agents.discogs'
p694
aS'com.plexapp.agents.lastfm'
p695
aS'com.plexapp.agents.plexmusic'
p696
aS'com.plexapp.agents.none'
p697
aS'tv.plex.agents.music'
p698
aS'org.musicbrainz.agents.music'
p699
asg394
I00
sS'languages'
p700
(lp701
S'xn'
p702
asS'persist_stored_files'
p703
I00
sS'version'
p704
I0
sS'primary_provider'
p705
I00
sS'prefs'
p706
I01
sS'name'
p707
S'Local Media Assets (Albums)'
p708
sasS'com.plexapp.agents.movieposterdb'
p709
(lp710
(dp711
S'media_types'
p712
(lp713
S'Movie'
p714
asS'accepts_from'
p715
NsS'fallback_agent'
p716
NsS'contributes_to'
p717
(lp718
S'com.plexapp.agents.imdb'
p719
asg15
I01
sS'languages'
p720
(lp721
S'xn'
p722
asS'persist_stored_files'
p723
I01
sS'version'
p724
I0
sS'primary_provider'
p725
I00
sS'prefs'
p726
I00
sS'name'
p727
S'CineMaterial'
p728
sasS'com.plexapp.agents.htbackdrops'
p729
(lp730
(dp731
S'media_types'
p732
(lp733
S'Artist'
p734
asS'accepts_from'
p735
NsS'fallback_agent'
p736
NsS'contributes_to'
p737
(lp738
S'com.plexapp.agents.lastfm'
p739
asg15
I01
sS'languages'
p740
(lp741
S'ab'
p742
aS'aa'
p743
aS'af'
p744
aS'ak'
p745
aS'sq'
p746
aS'am'
p747
aS'ar'
p748
aS'an'
p749
aS'hy'
p750
aS'as'
p751
aS'av'
p752
aS'ae'
p753
aS'ay'
p754
aS'az'
p755
aS'bm'
p756
aS'ba'
p757
aS'eu'
p758
aS'be'
p759
aS'bn'
p760
aS'bh'
p761
aS'bi'
p762
aS'bs'
p763
aS'pb'
p764
aS'br'
p765
aS'bg'
p766
aS'my'
p767
aS'ca'
p768
aS'ch'
p769
aS'ce'
p770
aS'ny'
p771
aS'zh'
p772
aS'cu'
p773
aS'cv'
p774
aS'kw'
p775
aS'co'
p776
aS'cr'
p777
aS'hr'
p778
aS'cs'
p779
aS'da'
p780
aS'dv'
p781
aS'nl'
p782
aS'dz'
p783
aS'en'
p784
aS'eo'
p785
aS'et'
p786
aS'ee'
p787
aS'fo'
p788
aS'fj'
p789
aS'fi'
p790
aS'fr'
p791
aS'fy'
p792
aS'ff'
p793
aS'gd'
p794
aS'gl'
p795
aS'lg'
p796
aS'ka'
p797
aS'de'
p798
aS'el'
p799
aS'gn'
p800
aS'gu'
p801
aS'ht'
p802
aS'ha'
p803
aS'he'
p804
aS'hz'
p805
aS'hi'
p806
aS'ho'
p807
aS'hu'
p808
aS'is'
p809
aS'io'
p810
aS'ig'
p811
aS'id'
p812
aS'ia'
p813
aS'ie'
p814
aS'iu'
p815
aS'ik'
p816
aS'ga'
p817
aS'it'
p818
aS'ja'
p819
aS'jv'
p820
aS'kl'
p821
aS'kn'
p822
aS'kr'
p823
aS'ks'
p824
aS'kk'
p825
aS'km'
p826
aS'ki'
p827
aS'rw'
p828
aS'ky'
p829
aS'kv'
p830
aS'kg'
p831
aS'ko'
p832
aS'kj'
p833
aS'ku'
p834
aS'lo'
p835
aS'la'
p836
aS'lv'
p837
aS'li'
p838
aS'ln'
p839
aS'lt'
p840
aS'lu'
p841
aS'lb'
p842
aS'mk'
p843
aS'mg'
p844
aS'ms'
p845
aS'ml'
p846
aS'mt'
p847
aS'gv'
p848
aS'mi'
p849
aS'mr'
p850
aS'mh'
p851
aS'mo'
p852
aS'mn'
p853
aS'na'
p854
aS'nv'
p855
aS'ng'
p856
aS'ne'
p857
aS'xn'
p858
aS'nd'
p859
aS'no'
p860
aS'nb'
p861
aS'nn'
p862
aS'oc'
p863
aS'oj'
p864
aS'or'
p865
aS'om'
p866
aS'os'
p867
aS'pi'
p868
aS'pa'
p869
aS'fa'
p870
aS'pl'
p871
aS'pt'
p872
aS'ps'
p873
aS'qu'
p874
aS'rm'
p875
aS'ro'
p876
aS'rn'
p877
aS'ru'
p878
aS'se'
p879
aS'sm'
p880
aS'sg'
p881
aS'sa'
p882
aS'sc'
p883
aS'sr'
p884
aS'sn'
p885
aS'ii'
p886
aS'sd'
p887
aS'si'
p888
aS'sk'
p889
aS'sl'
p890
aS'so'
p891
aS'st'
p892
aS'nr'
p893
aS'es'
p894
aS'su'
p895
aS'sw'
p896
aS'ss'
p897
aS'sv'
p898
aS'tl'
p899
aS'ty'
p900
aS'tg'
p901
aS'ta'
p902
aS'tt'
p903
aS'te'
p904
aS'th'
p905
aS'bo'
p906
aS'ti'
p907
aS'to'
p908
aS'ts'
p909
aS'tn'
p910
aS'tr'
p911
aS'tk'
p912
aS'tw'
p913
aS'ug'
p914
aS'uk'
p915
aS'ur'
p916
aS'uz'
p917
aS've'
p918
aS'vi'
p919
aS'vo'
p920
aS'wa'
p921
aS'cy'
p922
aS'wo'
p923
aS'xh'
p924
aS'yi'
p925
aS'yo'
p926
aS'za'
p927
aS'zu'
p928
asS'persist_stored_files'
p929
I01
sS'version'
p930
I0
sS'primary_provider'
p931
I00
sS'prefs'
p932
I00
sS'name'
p933
S'Home Theater Backdrops'
p934
sasS'com.plexapp.agents.lastfm'
p935
(lp936
(dp937
S'media_types'
p938
(lp939
S'Artist'
p940
asS'accepts_from'
p941
NsS'fallback_agent'
p942
NsS'contributes_to'
p943
Nsg15
I01
sS'languages'
p944
(lp945
S'en'
p946
aS'sv'
p947
aS'fr'
p948
aS'es'
p949
aS'de'
p950
aS'pl'
p951
aS'it'
p952
aS'pt'
p953
aS'ja'
p954
aS'tr'
p955
aS'ru'
p956
aS'zh'
p957
asS'persist_stored_files'
p958
I01
sS'version'
p959
I0
sS'primary_provider'
p960
I01
sS'prefs'
p961
I01
sS'name'
p962
S'Last.fm'
p963
sa(dp964
S'media_types'
p965
(lp966
S'Album'
p967
asS'accepts_from'
p968
NsS'fallback_agent'
p969
NsS'contributes_to'
p970
Nsg15
I01
sS'languages'
p971
(lp972
S'en'
p973
aS'sv'
p974
aS'fr'
p975
aS'es'
p976
aS'de'
p977
aS'pl'
p978
aS'it'
p979
aS'pt'
p980
aS'ja'
p981
aS'tr'
p982
aS'ru'
p983
aS'zh'
p984
asS'persist_stored_files'
p985
I01
sS'version'
p986
I0
sS'primary_provider'
p987
I01
sS'prefs'
p988
I01
sS'name'
p989
S'Last.fm'
p990
sass.